target datalayout = "e-m:e-p270:32:32-p271:32:32-p272:64:64-i64:64-i128:128-f80:128-n8:16:32:64-S128"
target triple = "x86_64-pc-linux-gnu"

%struct.GetBitContext = type { ptr, ptr, i32, i32, i32 }
%struct.AVCodecContext = type { ptr, i32, i32, ptr, i32, i32, ptr, ptr, ptr, i64, i32, i32, ptr, i32, %struct.AVRational, %struct.AVRational, %struct.AVRational, i32, i32, i32, i32, i32, %struct.AVRational, i32, i32, i32, i32, i32, i32, i32, i32, i32, i32, i32, ptr, ptr, i32, float, float, float, float, float, float, float, float, float, i32, i32, i32, i32, i32, i32, i32, i32, i32, i32, i32, i32, ptr, ptr, ptr, i32, i32, i32, i32, i32, i32, i32, i32, i32, i32, %struct.AVChannelLayout, i32, i32, i32, i32, i32, i32, i32, i32, ptr, i32, i32, i32, float, float, i32, i32, i32, i32, i32, ptr, i64, i64, float, float, i32, i32, ptr, ptr, i32, i32, i32, i32, i32, ptr, ptr, ptr, ptr, i32, i32, [8 x i64], i32, i32, i32, i32, i32, i32, i32, ptr, ptr, i32, i32, i32, i32, i32, i32, i32, i32, i32, i32, ptr, ptr, i32, i32, ptr, ptr, ptr, ptr, i32, i32, i64, i32, i32, i64, ptr, i64, ptr, i32, ptr, i32 }
%struct.AVRational = type { i32, i32 }
%struct.AVChannelLayout = type { i32, i32, %union.anon.0, ptr }
%union.anon.0 = type { i64 }
%struct.SVQ3Context = type { ptr, %struct.H264DSPContext, %struct.H264PredContext, %struct.HpelDSPContext, %struct.TpelDSPContext, %struct.VideoDSPContext, ptr, ptr, ptr, %struct.GetBitContext, %struct.GetBitContext, ptr, i32, i32, i32, i32, i32, i32, i32, i32, i32, i32, i32, i32, i32, i32, i32, i32, i32, i32, i32, i32, i32, i32, i32, i32, i32, i32, i32, ptr, i32, i32, [40 x i8], ptr, i32, i32, ptr, [2 x [40 x [2 x i16]]], [2 x [40 x i8]], [1536 x i16], [3 x [32 x i16]], [120 x i8], [88 x [16 x i32]], [96 x i32], [3 x %struct.SVQ3Frame] }
%struct.H264DSPContext = type { [4 x ptr], [4 x ptr], ptr, ptr, ptr, ptr, ptr, ptr, ptr, ptr, ptr, ptr, ptr, ptr, ptr, ptr, ptr, ptr, ptr, ptr, ptr, ptr, ptr, ptr, ptr, ptr, ptr, ptr }
%struct.H264PredContext = type { [15 x ptr], [12 x ptr], [11 x ptr], [9 x ptr], [2 x ptr], [2 x ptr], [2 x ptr], [3 x ptr], [3 x ptr] }
%struct.HpelDSPContext = type { [4 x [4 x ptr]], [4 x [4 x ptr]], [4 x [4 x ptr]], [4 x ptr] }
%struct.TpelDSPContext = type { [11 x ptr], [11 x ptr] }
%struct.VideoDSPContext = type { ptr, ptr }
%struct.SVQ3Frame = type { ptr, [2 x ptr], [2 x ptr], ptr, ptr }

; Function Attrs: cold nounwind optsize uwtable
define internal i32 @svq3_decode_end(ptr noundef %0) #0 {
  %2 = alloca ptr, align 8
  %3 = alloca ptr, align 8
  %4 = alloca i32, align 4
  store ptr %0, ptr %2, align 8, !tbaa !4
  call void @llvm.lifetime.start.p0(i64 8, ptr %3) #11
  %5 = load ptr, ptr %2, align 8, !tbaa !4
  %6 = getelementptr inbounds nuw %struct.AVCodecContext, ptr %5, i32 0, i32 6
  %7 = load ptr, ptr %6, align 8, !tbaa !9
  store ptr %7, ptr %3, align 8, !tbaa !29
  call void @llvm.lifetime.start.p0(i64 4, ptr %4) #11
  store i32 0, ptr %4, align 4, !tbaa !31
  br label %8

8:                                                ; preds = %25, %1
  %9 = load i32, ptr %4, align 4, !tbaa !31
  %10 = sext i32 %9 to i64
  %11 = icmp ult i64 %10, 3
  br i1 %11, label %13, label %12

12:                                               ; preds = %8
  call void @llvm.lifetime.end.p0(i64 4, ptr %4) #11
  br label %28

13:                                               ; preds = %8
  %14 = load ptr, ptr %3, align 8, !tbaa !29
  %15 = getelementptr inbounds nuw %struct.SVQ3Context, ptr %14, i32 0, i32 54
  %16 = load i32, ptr %4, align 4, !tbaa !31
  %17 = sext i32 %16 to i64
  %18 = getelementptr inbounds [3 x %struct.SVQ3Frame], ptr %15, i64 0, i64 %17
  call void @free_picture(ptr noundef %18)
  %19 = load ptr, ptr %3, align 8, !tbaa !29
  %20 = getelementptr inbounds nuw %struct.SVQ3Context, ptr %19, i32 0, i32 54
  %21 = load i32, ptr %4, align 4, !tbaa !31
  %22 = sext i32 %21 to i64
  %23 = getelementptr inbounds [3 x %struct.SVQ3Frame], ptr %20, i64 0, i64 %22
  %24 = getelementptr inbounds nuw %struct.SVQ3Frame, ptr %23, i32 0, i32 0
  call void @av_frame_free(ptr noundef %24)
  br label %25

25:                                               ; preds = %13
  %26 = load i32, ptr %4, align 4, !tbaa !31
  %27 = add nsw i32 %26, 1
  store i32 %27, ptr %4, align 4, !tbaa !31
  br label %8, !llvm.loop !116

28:                                               ; preds = %12
  %29 = load ptr, ptr %3, align 8, !tbaa !29
  %30 = getelementptr inbounds nuw %struct.SVQ3Context, ptr %29, i32 0, i32 11
  call void @av_freep(ptr noundef %30)
  %31 = load ptr, ptr %3, align 8, !tbaa !29
  %32 = getelementptr inbounds nuw %struct.SVQ3Context, ptr %31, i32 0, i32 43
  call void @av_freep(ptr noundef %32)
  %33 = load ptr, ptr %3, align 8, !tbaa !29
  %34 = getelementptr inbounds nuw %struct.SVQ3Context, ptr %33, i32 0, i32 46
  call void @av_freep(ptr noundef %34)
  %35 = load ptr, ptr %3, align 8, !tbaa !29
  %36 = getelementptr inbounds nuw %struct.SVQ3Context, ptr %35, i32 0, i32 39
  call void @av_freep(ptr noundef %36)
  call void @llvm.lifetime.end.p0(i64 8, ptr %3) #11
  ret i32 0
}