; Function Attrs: cold nounwind optsize uwtable
define internal noundef i32 @svq3_decode_end(ptr noundef readonly captures(none) %0) #0 {
  %2 = getelementptr inbounds nuw i8, ptr %0, i64 32
  %3 = load ptr, ptr %2, align 8, !tbaa !4
  %4 = getelementptr inbounds nuw i8, ptr %3, i64 11448
  br label %10

5:                                                ; preds = %10
  %6 = getelementptr inbounds nuw i8, ptr %3, i64 1448
  tail call void @av_freep(ptr noundef nonnull %6) #12
  %7 = getelementptr inbounds nuw i8, ptr %3, i64 1624
  tail call void @av_freep(ptr noundef nonnull %7) #12
  %8 = getelementptr inbounds nuw i8, ptr %3, i64 1640
  tail call void @av_freep(ptr noundef nonnull %8) #12
  %9 = getelementptr inbounds nuw i8, ptr %3, i64 1568
  tail call void @av_freep(ptr noundef nonnull %9) #12
  ret i32 0

10:                                               ; preds = %1, %10
  %indvars.iv = phi i64 [ 0, %1 ], [ %indvars.iv.next, %10 ]
  %11 = getelementptr inbounds nuw [3 x %struct.SVQ3Frame], ptr %4, i64 0, i64 %indvars.iv
  tail call fastcc void @free_picture(ptr noundef nonnull %11)
  tail call void @av_frame_free(ptr noundef nonnull %11) #12
  %indvars.iv.next = add nuw nsw i64 %indvars.iv, 1
  %exitcond.not = icmp eq i64 %indvars.iv.next, 3
  br i1 %exitcond.not, label %5, label %10, !llvm.loop !153
}